; Function Attrs: nounwind uwtable
define hidden noundef ptr @lj_strfmt_putint(ptr noundef returned %0, i32 noundef %1) local_unnamed_addr #5 {
  %3 = getelementptr inbounds nuw i8, ptr %0, i64 8
  %4 = load ptr, ptr %3, align 8, !tbaa !35
  %5 = load ptr, ptr %0, align 8, !tbaa !34
  %6 = ptrtoint ptr %4 to i64
  %7 = ptrtoint ptr %5 to i64
  %8 = sub i64 %6, %7
  %9 = trunc i64 %8 to i32
  %10 = icmp ult i32 %9, 11
  br i1 %10, label %11, label %lj_buf_more.exit, !prof !36

11:                                               ; preds = %2
  %12 = tail call ptr @lj_buf_more2(ptr noundef nonnull %0, i32 noundef 11) #13
  br label %lj_buf_more.exit

lj_buf_more.exit:                                 ; preds = %2, %11
  %.0.i = phi ptr [ %12, %11 ], [ %5, %2 ]
  %13 = tail call ptr @lj_strfmt_wint(ptr noundef %.0.i, i32 noundef %1)
  store ptr %13, ptr %0, align 8, !tbaa !34
  ret ptr %0
}